(lp0
Vfloat64
p1
acdill.dill
_get_attr
p2
(cdill.dill
_import_module
p3
(V_codecs
p4
tp5
Rp6
Vencode
p7
tp8
Rp9
(VAAAAAAAA8L8AAAAAAADwPwAAAAAAAPA/AAAAAAAA8D8AAAAAAADwPwAAAAAAAPA/AAAAAAAA8D8AAAAAAADwPwAAAAAAAPA/AAAAAAAA8D8AAAAAAADwPwAAAAAAAPA/AAAAAAAA8D8AAAAAAADwPwAAAAAAAPA/AAAAAAAA8D8AAAAAAADwPwAAAAAAAPA/AAAAAAAA8D8AAAAAAADwPwAAAAAAAPA/AAAAAAAA8D8AAAAAAADwPwAAAAAAAPA/AAAAAAAA8D8AAAAAAADwPwAAAAAAAPA/AAAAAAAA8D8AAAAAAADwPwAAAAAAAPA/AAAAAAAA8D8AAAAAAADwPwAAAAAAAPA/AAAAAAAA8D8AAAAAAADwPwAAAAAAAPA/AAAAAAAA8D8AAAAAAADwPwAAAAAAAPA/AAAAAAAA8D8AAAAAAADwPwAAAAAAAPA/AAAAAAAA8D8AAAAAAADwPwAAAAAAAPA/AAAAAAAA8D8AAAAAAADwPwAAAAAAAPA/AAAAAAAA8D8AAAAAAADwPwAAAAAAAPA/AAAAAAAA8D8AAAAAAADwPwAAAAAAAPA/AAAAAAAA8D8AAAAAAADwPwAAAAAAAPA/AAAAAAAA8D8AAAAAAADwPwAAAAAAAPA/AAAAAAAA8D8AAAAAAADwPwAAAAAAAPA/AAAAAAAA8D8AAAAAAADwPwAAAAAAAPA/AAAAAAAA8D8AAAAAAADwPwAAAAAAAABAAAAAAAAA8D8AAAAAAADwPwAAAAAAAPA/AAAAAAAA8D8AAAAAAADwPwAAAAAAAPA/AAAAAAAA8D8AAAAAAADwPwAAAAAAAPA/AAAAAAAA8D8AAAAAAADwPwAAAAAAAPA/AAAAAAAA8D8AAAAAAADwPwAAAAAAAPA/AAAAAAAA8D8AAAAAAADwPwAAAAAAAPA/AAAAAAAA8D8AAAAAAADwPwAAAAAAAPA/AAAAAAAA8D8AAAAAAADwPwAAAAAAAPA/AAAAAAAA8D8AAAAAAADwPwAAAAAAAPA/AAAAAAAA8D8AAAAAAADwPwAAAAAAAPA/AAAAAAAA8D8=
p10
Vlatin1
p11
tp12
Rp13
a(L10L
L10L
tp14
a.(lp0
Vfloat64
p1
acdill.dill
_get_attr
p2
(cdill.dill
_import_module
p3
(V_codecs
p4
tp5
Rp6
Vencode
p7
tp8
Rp9
(VAAAAAAAAEEAAAAAAAAAQQAAAAAAAABBAAAAAAAAAEEAAAAAAAAAQQAAAAAAAABBAAAAAAAAAEEAAAAAAAAAQQAAAAAAAABBAAAAAAAAAEEAAAAAAAAAQQAAAAAAAABBAAAAAAAAAEEAAAAAAAAAQQAAAAAAAABBAAAAAAAAAEEAAAAAAAAAQQAAAAAAAABBAAAAAAAAAEEAAAAAAAAAQQAAAAAAAABBAAAAAAAAAEEAAAAAAAAAQQAAAAAAAABBAAAAAAAAAEEAAAAAAAAAQQAAAAAAAABBAAAAAAAAAEEAAAAAAAAAQQAAAAAAAABBAAAAAAAAAEEAAAAAAAADwPwAAAAAAAPA/AAAAAAAA8D8AAAAAAADwPwAAAAAAAPA/AAAAAAAA8D8AAAAAAADwPwAAAAAAAPA/AAAAAAAA8D8AAAAAAAAQQAAAAAAAAPA/AAAAAAAA8L8AAAAAAADwPwAAAAAAAPA/AAAAAAAA8D8AAAAAAADwPwAAAAAAAPA/AAAAAAAA8D8AAAAAAAAIQAAAAAAAABBAAAAAAAAA8D8AAAAAAADwPwAAAAAAAPA/AAAAAAAA8D8AAAAAAADwPwAAAAAAAPA/AAAAAAAA8D8AAAAAAADwPwAAAAAAAPA/AAAAAAAAEEAAAAAAAAAQQAAAAAAAABBAAAAAAAAAEEAAAAAAAAAQQAAAAAAAABBAAAAAAAAAEEAAAAAAAAAQQAAAAAAAABBAAAAAAAAAEEAAAAAAAAAQQAAAAAAAABBAAAAAAAAAEEAAAAAAAAAQQAAAAAAAABBAAAAAAAAAEEAAAAAAAAAQQAAAAAAAABBAAAAAAAAAEEAAAAAAAAAQQAAAAAAAABBAAAAAAAAAEEAAAAAAAAAQQAAAAAAAABBAAAAAAAAAEEAAAAAAAAAQQAAAAAAAABBAAAAAAAAAEEAAAAAAAAAQQAAAAAAAABBAAAAAAAAAEEAAAAAAAAAQQAAAAAAAABBAAAAAAAAAEEAAAAAAAAAQQAAAAAAAABBAAAAAAAAAEEAAAAAAAAAQQAAAAAAAABBAAAAAAAAAEEA=
p10
Vlatin1
p11
tp12
Rp13
a(L10L
L10L
tp14
a.